target datalayout = "e-m:e-p270:32:32-p271:32:32-p272:64:64-i64:64-i128:128-f80:128-n8:16:32:64-S128"
target triple = "x86_64-pc-linux-gnu"

%struct.SHA1_CTX = type { [5 x i32], [2 x i32], [64 x i8] }

; Function Attrs: nounwind uwtable
define internal void @SHA1Final(ptr noundef %0, ptr noundef %1) #0 {
  %3 = alloca ptr, align 8
  %4 = alloca ptr, align 8
  %5 = alloca i32, align 4
  %6 = alloca [8 x i8], align 1
  %7 = alloca i8, align 1
  store ptr %0, ptr %3, align 8
  store ptr %1, ptr %4, align 8
  call void @llvm.lifetime.start.p0(i64 4, ptr %5) #4
  call void @llvm.lifetime.start.p0(i64 8, ptr %6) #4
  call void @llvm.lifetime.start.p0(i64 1, ptr %7) #4
  store i32 0, ptr %5, align 4
  br label %8

8:                                                ; preds = %30, %2
  %9 = load i32, ptr %5, align 4
  %10 = icmp ult i32 %9, 8
  br i1 %10, label %11, label %33

11:                                               ; preds = %8
  %12 = load ptr, ptr %4, align 8
  %13 = getelementptr inbounds nuw %struct.SHA1_CTX, ptr %12, i32 0, i32 1
  %14 = load i32, ptr %5, align 4
  %15 = icmp uge i32 %14, 4
  %16 = select i1 %15, i32 0, i32 1
  %17 = sext i32 %16 to i64
  %18 = getelementptr inbounds [2 x i32], ptr %13, i64 0, i64 %17
  %19 = load i32, ptr %18, align 4
  %20 = load i32, ptr %5, align 4
  %21 = and i32 %20, 3
  %22 = sub i32 3, %21
  %23 = mul i32 %22, 8
  %24 = lshr i32 %19, %23
  %25 = and i32 %24, 255
  %26 = trunc i32 %25 to i8
  %27 = load i32, ptr %5, align 4
  %28 = zext i32 %27 to i64
  %29 = getelementptr inbounds nuw [8 x i8], ptr %6, i64 0, i64 %28
  store i8 %26, ptr %29, align 1
  br label %30

30:                                               ; preds = %11
  %31 = load i32, ptr %5, align 4
  %32 = add i32 %31, 1
  store i32 %32, ptr %5, align 4
  br label %8, !llvm.loop !6

33:                                               ; preds = %8
  store i8 -128, ptr %7, align 1
  %34 = load ptr, ptr %4, align 8
  call void @SHA1Update(ptr noundef %34, ptr noundef %7, i32 noundef 1)
  br label %35

35:                                               ; preds = %42, %33
  %36 = load ptr, ptr %4, align 8
  %37 = getelementptr inbounds nuw %struct.SHA1_CTX, ptr %36, i32 0, i32 1
  %38 = getelementptr inbounds [2 x i32], ptr %37, i64 0, i64 0
  %39 = load i32, ptr %38, align 4
  %40 = and i32 %39, 504
  %41 = icmp ne i32 %40, 448
  br i1 %41, label %42, label %44

42:                                               ; preds = %35
  store i8 0, ptr %7, align 1
  %43 = load ptr, ptr %4, align 8
  call void @SHA1Update(ptr noundef %43, ptr noundef %7, i32 noundef 1)
  br label %35, !llvm.loop !7

44:                                               ; preds = %35
  %45 = load ptr, ptr %4, align 8
  %46 = getelementptr inbounds [8 x i8], ptr %6, i64 0, i64 0
  call void @SHA1Update(ptr noundef %45, ptr noundef %46, i32 noundef 8)
  store i32 0, ptr %5, align 4
  br label %47

47:                                               ; preds = %69, %44
  %48 = load i32, ptr %5, align 4
  %49 = icmp ult i32 %48, 20
  br i1 %49, label %50, label %72

50:                                               ; preds = %47
  %51 = load ptr, ptr %4, align 8
  %52 = getelementptr inbounds nuw %struct.SHA1_CTX, ptr %51, i32 0, i32 0
  %53 = load i32, ptr %5, align 4
  %54 = lshr i32 %53, 2
  %55 = zext i32 %54 to i64
  %56 = getelementptr inbounds nuw [5 x i32], ptr %52, i64 0, i64 %55
  %57 = load i32, ptr %56, align 4
  %58 = load i32, ptr %5, align 4
  %59 = and i32 %58, 3
  %60 = sub i32 3, %59
  %61 = mul i32 %60, 8
  %62 = lshr i32 %57, %61
  %63 = and i32 %62, 255
  %64 = trunc i32 %63 to i8
  %65 = load ptr, ptr %3, align 8
  %66 = load i32, ptr %5, align 4
  %67 = zext i32 %66 to i64
  %68 = getelementptr inbounds nuw i8, ptr %65, i64 %67
  store i8 %64, ptr %68, align 1
  br label %69

69:                                               ; preds = %50
  %70 = load i32, ptr %5, align 4
  %71 = add i32 %70, 1
  store i32 %71, ptr %5, align 4
  br label %47, !llvm.loop !8

72:                                               ; preds = %47
  %73 = load ptr, ptr %4, align 8
  call void @llvm.memset.p0.i64(ptr align 4 %73, i8 0, i64 92, i1 false)
  call void @llvm.memset.p0.i64(ptr align 1 %6, i8 0, i64 8, i1 false)
  call void @llvm.lifetime.end.p0(i64 1, ptr %7) #4
  call void @llvm.lifetime.end.p0(i64 8, ptr %6) #4
  call void @llvm.lifetime.end.p0(i64 4, ptr %5) #4
  ret void
}

; Function Attrs: nounwind uwtable
define internal void @SHA1Init(ptr noundef %0) #0 {
  %2 = alloca ptr, align 8
  store ptr %0, ptr %2, align 8
  %3 = load ptr, ptr %2, align 8
  %4 = getelementptr inbounds nuw %struct.SHA1_CTX, ptr %3, i32 0, i32 0
  %5 = getelementptr inbounds [5 x i32], ptr %4, i64 0, i64 0
  store i32 1732584193, ptr %5, align 4
  %6 = load ptr, ptr %2, align 8
  %7 = getelementptr inbounds nuw %struct.SHA1_CTX, ptr %6, i32 0, i32 0
  %8 = getelementptr inbounds [5 x i32], ptr %7, i64 0, i64 1
  store i32 -271733879, ptr %8, align 4
  %9 = load ptr, ptr %2, align 8
  %10 = getelementptr inbounds nuw %struct.SHA1_CTX, ptr %9, i32 0, i32 0
  %11 = getelementptr inbounds [5 x i32], ptr %10, i64 0, i64 2
  store i32 -1732584194, ptr %11, align 4
  %12 = load ptr, ptr %2, align 8
  %13 = getelementptr inbounds nuw %struct.SHA1_CTX, ptr %12, i32 0, i32 0
  %14 = getelementptr inbounds [5 x i32], ptr %13, i64 0, i64 3
  store i32 271733878, ptr %14, align 4
  %15 = load ptr, ptr %2, align 8
  %16 = getelementptr inbounds nuw %struct.SHA1_CTX, ptr %15, i32 0, i32 0
  %17 = getelementptr inbounds [5 x i32], ptr %16, i64 0, i64 4
  store i32 -1009589776, ptr %17, align 4
  %18 = load ptr, ptr %2, align 8
  %19 = getelementptr inbounds nuw %struct.SHA1_CTX, ptr %18, i32 0, i32 1
  %20 = getelementptr inbounds [2 x i32], ptr %19, i64 0, i64 1
  store i32 0, ptr %20, align 4
  %21 = load ptr, ptr %2, align 8
  %22 = getelementptr inbounds nuw %struct.SHA1_CTX, ptr %21, i32 0, i32 1
  %23 = getelementptr inbounds [2 x i32], ptr %22, i64 0, i64 0
  store i32 0, ptr %23, align 4
  ret void
}

; Function Attrs: nounwind uwtable
define hidden void @builtin_SHA1(ptr noundef %0, ptr noundef %1, i32 noundef %2) #0 {
  %4 = alloca ptr, align 8
  %5 = alloca ptr, align 8
  %6 = alloca i32, align 4
  %7 = alloca %struct.SHA1_CTX, align 4
  %8 = alloca i32, align 4
  store ptr %0, ptr %4, align 8
  store ptr %1, ptr %5, align 8
  store i32 %2, ptr %6, align 4
  call void @llvm.lifetime.start.p0(i64 92, ptr %7) #4
  call void @llvm.lifetime.start.p0(i64 4, ptr %8) #4
  call void @SHA1Init(ptr noundef %7)
  store i32 0, ptr %8, align 4
  br label %9

9:                                                ; preds = %18, %3
  %10 = load i32, ptr %8, align 4
  %11 = load i32, ptr %6, align 4
  %12 = icmp slt i32 %10, %11
  br i1 %12, label %13, label %21

13:                                               ; preds = %9
  %14 = load ptr, ptr %5, align 8
  %15 = load i32, ptr %8, align 4
  %16 = sext i32 %15 to i64
  %17 = getelementptr inbounds i8, ptr %14, i64 %16
  call void @SHA1Update(ptr noundef %7, ptr noundef %17, i32 noundef 1)
  br label %18

18:                                               ; preds = %13
  %19 = load i32, ptr %8, align 4
  %20 = add nsw i32 %19, 1
  store i32 %20, ptr %8, align 4
  br label %9, !llvm.loop !3

21:                                               ; preds = %9
  %22 = load ptr, ptr %4, align 8
  call void @SHA1Final(ptr noundef %22, ptr noundef %7)
  call void @llvm.lifetime.end.p0(i64 4, ptr %8) #4
  call void @llvm.lifetime.end.p0(i64 92, ptr %7) #4
  ret void
}